; Function Attrs: nounwind uwtable
define internal range(i32 -1, 1) i32 @H5P__lacc_elink_fapl_get(i64 %0, ptr readnone captures(none) %1, i64 %2, ptr noundef captures(none) %3) #0 {
  %5 = load i64, ptr %3, align 8
  %.not = icmp eq i64 %5, 0
  br i1 %.not, label %21, label %6

6:                                                ; preds = %4
  %7 = load i64, ptr @H5P_CLS_FILE_ACCESS_ID_g, align 8
  %8 = tail call ptr @H5P_object_verify(i64 noundef %5, i64 noundef %7) #8
  %9 = icmp eq ptr %8, null
  br i1 %9, label %10, label %14

10:                                               ; preds = %6
  %11 = load i64, ptr @H5E_PLIST_g, align 8
  %12 = load i64, ptr @H5E_BADTYPE_g, align 8
  %13 = tail call i32 (ptr, ptr, i32, i64, i64, ptr, ...) @H5E_printf_stack(ptr noundef nonnull @.str.1, ptr noundef nonnull @__func__.H5P__lacc_elink_fapl_get, i32 noundef 302, i64 noundef %11, i64 noundef %12, ptr noundef nonnull @.str.27) #8
  br label %21

14:                                               ; preds = %6
  %15 = tail call i64 @H5P_copy_plist(ptr noundef nonnull %8, i1 noundef zeroext false) #8
  store i64 %15, ptr %3, align 8
  %16 = icmp slt i64 %15, 0
  br i1 %16, label %17, label %21

17:                                               ; preds = %14
  %18 = load i64, ptr @H5E_PLIST_g, align 8
  %19 = load i64, ptr @H5E_CANTCOPY_g, align 8
  %20 = tail call i32 (ptr, ptr, i32, i64, i64, ptr, ...) @H5E_printf_stack(ptr noundef nonnull @.str.1, ptr noundef nonnull @__func__.H5P__lacc_elink_fapl_get, i32 noundef 304, i64 noundef %18, i64 noundef %19, ptr noundef nonnull @.str.28) #8
  br label %21

21:                                               ; preds = %4, %14, %17, %10
  %.0 = phi i32 [ -1, %10 ], [ -1, %17 ], [ 0, %14 ], [ 0, %4 ]
  ret i32 %.0
}